; Function Attrs: nounwind uwtable
define ptr @Dec_GraphToAig(ptr noundef %0, ptr noundef readonly captures(none) %1, ptr noundef readonly captures(none) %2) local_unnamed_addr #0 {
  %4 = getelementptr inbounds nuw i8, ptr %1, i64 4
  %5 = load i32, ptr %4, align 4
  %6 = icmp sgt i32 %5, 0
  br i1 %6, label %.lr.ph, label %.critedge

.lr.ph:                                           ; preds = %3
  %7 = getelementptr i8, ptr %1, i64 16
  %8 = getelementptr i8, ptr %2, i64 8
  br label %9

9:                                                ; preds = %.lr.ph, %9
  %indvars.iv = phi i64 [ 0, %.lr.ph ], [ %indvars.iv.next, %9 ]
  %.val = load ptr, ptr %7, align 8
  %.val10 = load ptr, ptr %8, align 8
  %10 = getelementptr inbounds nuw ptr, ptr %.val10, i64 %indvars.iv
  %11 = load ptr, ptr %10, align 8
  %12 = getelementptr inbounds nuw %struct.Dec_Node_t_, ptr %.val, i64 %indvars.iv, i32 2
  store ptr %11, ptr %12, align 8
  %indvars.iv.next = add nuw nsw i64 %indvars.iv, 1
  %13 = load i32, ptr %4, align 4
  %14 = sext i32 %13 to i64
  %15 = icmp slt i64 %indvars.iv.next, %14
  br i1 %15, label %9, label %.critedge, !llvm.loop !7

.critedge:                                        ; preds = %9, %3
  %16 = tail call ptr @Dec_GraphToNetwork(ptr noundef %0, ptr noundef nonnull %1)
  ret ptr %16
}